; ModuleID = '29/866.c'
source_filename = "29/866.c"
target datalayout = "e-m:e-p270:32:32-p271:32:32-p272:64:64-i64:64-f80:128-n8:16:32:64-S128"
target triple = "x86_64-pc-linux-gnu"

@.str = private unnamed_addr constant [3 x i8] c"%d\00", align 1
@.str.1 = private unnamed_addr constant [7 x i8] c"%.3lf\0A\00", align 1

; Function Attrs: noinline nounwind uwtable
define dso_local i32 @main() #0 {
  %1 = alloca i32, align 4
  %2 = alloca i32, align 4
  %3 = alloca double, align 8
  %4 = alloca [10000 x i32], align 16
  %5 = alloca [200 x i32], align 16
  %6 = alloca i32, align 4
  %7 = alloca i32, align 4
  %8 = alloca i32, align 4
  %9 = alloca i32, align 4
  store i32 0, i32* %1, align 4
  %10 = bitcast [10000 x i32]* %4 to i8*
  call void @llvm.memset.p0i8.i64(i8* align 16 %10, i8 0, i64 40000, i1 false)
  store i32 1, i32* %6, align 4
  store i32 2, i32* %7, align 4
  %11 = load i32, i32* %6, align 4
  %12 = getelementptr inbounds [10000 x i32], [10000 x i32]* %4, i64 0, i64 1
  store i32 %11, i32* %12, align 4
  %13 = load i32, i32* %7, align 4
  %14 = getelementptr inbounds [10000 x i32], [10000 x i32]* %4, i64 0, i64 2
  store i32 %13, i32* %14, align 8
  %15 = load i32, i32* %6, align 4
  %16 = load i32, i32* %7, align 4
  %17 = add nsw i32 %15, %16
  %18 = getelementptr inbounds [10000 x i32], [10000 x i32]* %4, i64 0, i64 3
  store i32 %17, i32* %18, align 4
  %19 = load i32, i32* %7, align 4
  %20 = getelementptr inbounds [10000 x i32], [10000 x i32]* %4, i64 0, i64 3
  %21 = load i32, i32* %20, align 4
  %22 = add nsw i32 %19, %21
  %23 = getelementptr inbounds [10000 x i32], [10000 x i32]* %4, i64 0, i64 4
  store i32 %22, i32* %23, align 16
  %24 = call i32 (i8*, ...) @__isoc99_scanf(i8* getelementptr inbounds ([3 x i8], [3 x i8]* @.str, i64 0, i64 0), i32* %2)
  store i32 1, i32* %8, align 4
  br label %25

25:                                               ; preds = %34, %0
  %26 = load i32, i32* %8, align 4
  %27 = load i32, i32* %2, align 4
  %28 = icmp sle i32 %26, %27
  br i1 %28, label %29, label %37

29:                                               ; preds = %25
  %30 = load i32, i32* %8, align 4
  %31 = sext i32 %30 to i64
  %32 = getelementptr inbounds [200 x i32], [200 x i32]* %5, i64 0, i64 %31
  %33 = call i32 (i8*, ...) @__isoc99_scanf(i8* getelementptr inbounds ([3 x i8], [3 x i8]* @.str, i64 0, i64 0), i32* %32)
  br label %34

34:                                               ; preds = %29
  %35 = load i32, i32* %8, align 4
  %36 = add nsw i32 %35, 1
  store i32 %36, i32* %8, align 4
  br label %25

37:                                               ; preds = %25
  store i32 1, i32* %8, align 4
  br label %38

38:                                               ; preds = %99, %37
  %39 = load i32, i32* %8, align 4
  %40 = load i32, i32* %2, align 4
  %41 = icmp sle i32 %39, %40
  br i1 %41, label %42, label %102

42:                                               ; preds = %38
  store double 0.000000e+00, double* %3, align 8
  store i32 5, i32* %9, align 4
  br label %43

43:                                               ; preds = %66, %42
  %44 = load i32, i32* %9, align 4
  %45 = load i32, i32* %8, align 4
  %46 = sext i32 %45 to i64
  %47 = getelementptr inbounds [200 x i32], [200 x i32]* %5, i64 0, i64 %46
  %48 = load i32, i32* %47, align 4
  %49 = add nsw i32 %48, 1
  %50 = icmp sle i32 %44, %49
  br i1 %50, label %51, label %69

51:                                               ; preds = %43
  %52 = load i32, i32* %9, align 4
  %53 = sub nsw i32 %52, 1
  %54 = sext i32 %53 to i64
  %55 = getelementptr inbounds [10000 x i32], [10000 x i32]* %4, i64 0, i64 %54
  %56 = load i32, i32* %55, align 4
  %57 = load i32, i32* %9, align 4
  %58 = sub nsw i32 %57, 2
  %59 = sext i32 %58 to i64
  %60 = getelementptr inbounds [10000 x i32], [10000 x i32]* %4, i64 0, i64 %59
  %61 = load i32, i32* %60, align 4
  %62 = add nsw i32 %56, %61
  %63 = load i32, i32* %9, align 4
  %64 = sext i32 %63 to i64
  %65 = getelementptr inbounds [10000 x i32], [10000 x i32]* %4, i64 0, i64 %64
  store i32 %62, i32* %65, align 4
  br label %66

66:                                               ; preds = %51
  %67 = load i32, i32* %9, align 4
  %68 = add nsw i32 %67, 1
  store i32 %68, i32* %9, align 4
  br label %43

69:                                               ; preds = %43
  store i32 1, i32* %9, align 4
  br label %70

70:                                               ; preds = %93, %69
  %71 = load i32, i32* %9, align 4
  %72 = load i32, i32* %8, align 4
  %73 = sext i32 %72 to i64
  %74 = getelementptr inbounds [200 x i32], [200 x i32]* %5, i64 0, i64 %73
  %75 = load i32, i32* %74, align 4
  %76 = icmp sle i32 %71, %75
  br i1 %76, label %77, label %96

77:                                               ; preds = %70
  %78 = load i32, i32* %9, align 4
  %79 = add nsw i32 %78, 1
  %80 = sext i32 %79 to i64
  %81 = getelementptr inbounds [10000 x i32], [10000 x i32]* %4, i64 0, i64 %80
  %82 = load i32, i32* %81, align 4
  %83 = sitofp i32 %82 to double
  %84 = fmul double 1.000000e+00, %83
  %85 = load i32, i32* %9, align 4
  %86 = sext i32 %85 to i64
  %87 = getelementptr inbounds [10000 x i32], [10000 x i32]* %4, i64 0, i64 %86
  %88 = load i32, i32* %87, align 4
  %89 = sitofp i32 %88 to double
  %90 = fdiv double %84, %89
  %91 = load double, double* %3, align 8
  %92 = fadd double %91, %90
  store double %92, double* %3, align 8
  br label %93

93:                                               ; preds = %77
  %94 = load i32, i32* %9, align 4
  %95 = add nsw i32 %94, 1
  store i32 %95, i32* %9, align 4
  br label %70

96:                                               ; preds = %70
  %97 = load double, double* %3, align 8
  %98 = call i32 (i8*, ...) @printf(i8* getelementptr inbounds ([7 x i8], [7 x i8]* @.str.1, i64 0, i64 0), double %97)
  br label %99

99:                                               ; preds = %96
  %100 = load i32, i32* %8, align 4
  %101 = add nsw i32 %100, 1
  store i32 %101, i32* %8, align 4
  br label %38

102:                                              ; preds = %38
  ret i32 0
}

; Function Attrs: argmemonly nounwind willreturn
declare void @llvm.memset.p0i8.i64(i8* nocapture writeonly, i8, i64, i1 immarg) #1

declare dso_local i32 @__isoc99_scanf(i8*, ...) #2

declare dso_local i32 @printf(i8*, ...) #2


!llvm.module.flags = !{!0}
!llvm.ident = !{!1}

!0 = !{i32 1, !"wchar_size", i32 4}
!1 = !{!"clang version 10.0.0-4ubuntu1 "}
